; Function Attrs: mustprogress uwtable
define internal void @_ZN5arrow8internal6FnOnceIFvRKNS_10FutureImplEEE6FnImplINS_6FutureINS0_5EmptyEE21WrapStatusyOnComplete8CallbackIZZZNS_4util12_GLOBAL__N_131ThrottledAsyncTaskSchedulerImpl10SubmitTaskESt10unique_ptrINSD_18AsyncTaskScheduler4TaskESt14default_deleteISI_EEibENUlvE_clEvENKUlvE_clEvEUlRKNS_6StatusEE_EEE6invokeES4_(ptr nocapture noundef nonnull readonly align 8 dereferenceable(32) %this, ptr nocapture noundef nonnull readonly align 8 dereferenceable(72) %a) unnamed_addr #0 align 2 {
entry:
  %0 = getelementptr inbounds i8, ptr %a, i64 40
  %a.val = load ptr, ptr %0, align 8
  %a.val.val = load ptr, ptr %a.val, align 8
  %cmp.i.i.i = icmp eq ptr %a.val.val, null
  br i1 %cmp.i.i.i, label %if.then.i.i, label %_ZNO5arrow6FutureINS_8internal5EmptyEE21WrapStatusyOnComplete8CallbackIZZZNS_4util12_GLOBAL__N_131ThrottledAsyncTaskSchedulerImpl10SubmitTaskESt10unique_ptrINS6_18AsyncTaskScheduler4TaskESt14default_deleteISB_EEibENUlvE_clEvENKUlvE_clEvEUlRKNS_6StatusEE_EclERKNS_10FutureImplE.exit

if.then.i.i:                                      ; preds = %entry
  %fn_ = getelementptr inbounds i8, ptr %this, i64 8
  %1 = getelementptr inbounds i8, ptr %this, i64 16
  %.val1.i.i = load ptr, ptr %1, align 8
  %throttle_.i.i = getelementptr inbounds i8, ptr %.val1.i.i, i64 32
  %2 = load ptr, ptr %throttle_.i.i, align 8
  %3 = load i32, ptr %fn_, align 8
  %vtable.i.i = load ptr, ptr %2, align 8
  %vfn.i.i = getelementptr inbounds i8, ptr %vtable.i.i, i64 24
  %4 = load ptr, ptr %vfn.i.i, align 8
  tail call void %4(ptr noundef nonnull align 8 dereferenceable(8) %2, i32 noundef %3)
  %.val.i.i = load ptr, ptr %1, align 8
  tail call fastcc void @_ZN5arrow4util12_GLOBAL__N_131ThrottledAsyncTaskSchedulerImpl13ContinueTasksEv(ptr noundef nonnull align 8 dereferenceable(88) %.val.i.i)
  br label %_ZNO5arrow6FutureINS_8internal5EmptyEE21WrapStatusyOnComplete8CallbackIZZZNS_4util12_GLOBAL__N_131ThrottledAsyncTaskSchedulerImpl10SubmitTaskESt10unique_ptrINS6_18AsyncTaskScheduler4TaskESt14default_deleteISB_EEibENUlvE_clEvENKUlvE_clEvEUlRKNS_6StatusEE_EclERKNS_10FutureImplE.exit

_ZNO5arrow6FutureINS_8internal5EmptyEE21WrapStatusyOnComplete8CallbackIZZZNS_4util12_GLOBAL__N_131ThrottledAsyncTaskSchedulerImpl10SubmitTaskESt10unique_ptrINS6_18AsyncTaskScheduler4TaskESt14default_deleteISB_EEibENUlvE_clEvENKUlvE_clEvEUlRKNS_6StatusEE_EclERKNS_10FutureImplE.exit: ; preds = %entry, %if.then.i.i
  ret void
}